; Function Attrs: mustprogress uwtable
define hidden void @_ZN19OpenColorIO_v2_4dev23MetalShaderClassWrapper21getClassWrapperHeaderERKNSt7__cxx1112basic_stringIcSt11char_traitsIcESaIcEEE(ptr noalias sret(%"class.std::__cxx11::basic_string") align 8 %agg.result, ptr noundef nonnull align 8 dereferenceable(96) %this, ptr noundef nonnull align 8 dereferenceable(32) %originalHeader) unnamed_addr #0 align 2 personality ptr @__gxx_personality_v0 {
entry:
  %st = alloca %"class.OpenColorIO_v2_4dev::GpuShaderText", align 8
  %agg.tmp.ensured = alloca %"class.std::__cxx11::basic_string", align 8
  %agg.tmp.ensured2 = alloca %"class.OpenColorIO_v2_4dev::GpuShaderText::GpuShaderLine", align 8
  %classWrapHeader = alloca %"class.std::__cxx11::basic_string", align 8
  %ref.tmp = alloca %"class.std::allocator", align 1
  %ref.tmp6 = alloca %"class.std::__cxx11::basic_string", align 8
  call void @_ZN19OpenColorIO_v2_4dev13GpuShaderTextC1ENS_11GpuLanguageE(ptr noundef nonnull align 8 dereferenceable(764) %st, i32 noundef 8)
  invoke void @_ZNK19OpenColorIO_v2_4dev23MetalShaderClassWrapper26generateClassWrapperHeaderB5cxx11ERNS_13GpuShaderTextE(ptr nonnull sret(%"class.std::__cxx11::basic_string") align 8 %agg.tmp.ensured, ptr noundef nonnull align 8 dereferenceable(96) %this, ptr noundef nonnull align 8 dereferenceable(764) %st)
          to label %invoke.cont unwind label %lpad

invoke.cont:                                      ; preds = %entry
  call void @_ZNSt7__cxx1112basic_stringIcSt11char_traitsIcESaIcEED1Ev(ptr noundef nonnull align 8 dereferenceable(32) %agg.tmp.ensured) #13
  invoke void @_ZN19OpenColorIO_v2_4dev13GpuShaderText7newLineEv(ptr nonnull sret(%"class.OpenColorIO_v2_4dev::GpuShaderText::GpuShaderLine") align 8 %agg.tmp.ensured2, ptr noundef nonnull align 8 dereferenceable(764) %st)
          to label %invoke.cont3 unwind label %lpad

invoke.cont3:                                     ; preds = %invoke.cont
  call void @_ZN19OpenColorIO_v2_4dev13GpuShaderText13GpuShaderLineD1Ev(ptr noundef nonnull align 8 dereferenceable(8) %agg.tmp.ensured2) #13
  call void @_ZNSaIcEC1Ev(ptr noundef nonnull align 1 dereferenceable(1) %ref.tmp) #13
  invoke void @_ZNSt7__cxx1112basic_stringIcSt11char_traitsIcESaIcEEC1EPKcRKS3_(ptr noundef nonnull align 8 dereferenceable(32) %classWrapHeader, ptr noundef nonnull @.str.62, ptr noundef nonnull align 1 dereferenceable(1) %ref.tmp)
          to label %invoke.cont5 unwind label %lpad4

invoke.cont5:                                     ; preds = %invoke.cont3
  call void @_ZNSaIcED1Ev(ptr noundef nonnull align 1 dereferenceable(1) %ref.tmp) #13
  invoke void @_ZNK19OpenColorIO_v2_4dev13GpuShaderText6stringB5cxx11Ev(ptr nonnull sret(%"class.std::__cxx11::basic_string") align 8 %ref.tmp6, ptr noundef nonnull align 8 dereferenceable(764) %st)
          to label %invoke.cont8 unwind label %lpad7

invoke.cont8:                                     ; preds = %invoke.cont5
  %call = invoke noundef nonnull align 8 dereferenceable(32) ptr @_ZNSt7__cxx1112basic_stringIcSt11char_traitsIcESaIcEEpLERKS4_(ptr noundef nonnull align 8 dereferenceable(32) %classWrapHeader, ptr noundef nonnull align 8 dereferenceable(32) %ref.tmp6)
          to label %invoke.cont10 unwind label %lpad9

invoke.cont10:                                    ; preds = %invoke.cont8
  call void @_ZNSt7__cxx1112basic_stringIcSt11char_traitsIcESaIcEED1Ev(ptr noundef nonnull align 8 dereferenceable(32) %ref.tmp6) #13
  invoke void @_ZNSt7__cxx1112basic_stringIcSt11char_traitsIcESaIcEEC1ERKS4_(ptr noundef nonnull align 8 dereferenceable(32) %agg.result, ptr noundef nonnull align 8 dereferenceable(32) %classWrapHeader)
          to label %.noexc unwind label %lpad7

.noexc:                                           ; preds = %invoke.cont10
  %call.i = invoke noundef nonnull align 8 dereferenceable(32) ptr @_ZNSt7__cxx1112basic_stringIcSt11char_traitsIcESaIcEE6appendERKS4_(ptr noundef nonnull align 8 dereferenceable(32) %agg.result, ptr noundef nonnull align 8 dereferenceable(32) %originalHeader)
          to label %invoke.cont11 unwind label %lpad.i

lpad.i:                                           ; preds = %.noexc
  %0 = landingpad { ptr, i32 }
          cleanup
  call void @_ZNSt7__cxx1112basic_stringIcSt11char_traitsIcESaIcEED1Ev(ptr noundef nonnull align 8 dereferenceable(32) %agg.result) #13
  br label %ehcleanup

invoke.cont11:                                    ; preds = %.noexc
  call void @_ZNSt7__cxx1112basic_stringIcSt11char_traitsIcESaIcEED1Ev(ptr noundef nonnull align 8 dereferenceable(32) %classWrapHeader) #13
  %m_ossLine.i = getelementptr inbounds i8, ptr %st, i64 384
  call void @_ZNSt7__cxx1119basic_ostringstreamIcSt11char_traitsIcESaIcEED1Ev(ptr noundef nonnull align 8 dereferenceable(112) %m_ossLine.i) #13
  %m_ossText.i = getelementptr inbounds i8, ptr %st, i64 8
  call void @_ZNSt7__cxx1119basic_ostringstreamIcSt11char_traitsIcESaIcEED1Ev(ptr noundef nonnull align 8 dereferenceable(112) %m_ossText.i) #13
  ret void

lpad:                                             ; preds = %invoke.cont, %entry
  %1 = landingpad { ptr, i32 }
          cleanup
  br label %ehcleanup12

lpad4:                                            ; preds = %invoke.cont3
  %2 = landingpad { ptr, i32 }
          cleanup
  call void @_ZNSaIcED1Ev(ptr noundef nonnull align 1 dereferenceable(1) %ref.tmp) #13
  br label %ehcleanup12

lpad7:                                            ; preds = %invoke.cont10, %invoke.cont5
  %3 = landingpad { ptr, i32 }
          cleanup
  br label %ehcleanup

lpad9:                                            ; preds = %invoke.cont8
  %4 = landingpad { ptr, i32 }
          cleanup
  call void @_ZNSt7__cxx1112basic_stringIcSt11char_traitsIcESaIcEED1Ev(ptr noundef nonnull align 8 dereferenceable(32) %ref.tmp6) #13
  br label %ehcleanup

ehcleanup:                                        ; preds = %lpad7, %lpad.i, %lpad9
  %.pn = phi { ptr, i32 } [ %4, %lpad9 ], [ %3, %lpad7 ], [ %0, %lpad.i ]
  call void @_ZNSt7__cxx1112basic_stringIcSt11char_traitsIcESaIcEED1Ev(ptr noundef nonnull align 8 dereferenceable(32) %classWrapHeader) #13
  br label %ehcleanup12

ehcleanup12:                                      ; preds = %ehcleanup, %lpad4, %lpad
  %.pn.pn = phi { ptr, i32 } [ %.pn, %ehcleanup ], [ %2, %lpad4 ], [ %1, %lpad ]
  %m_ossLine.i3 = getelementptr inbounds i8, ptr %st, i64 384
  call void @_ZNSt7__cxx1119basic_ostringstreamIcSt11char_traitsIcESaIcEED1Ev(ptr noundef nonnull align 8 dereferenceable(112) %m_ossLine.i3) #13
  %m_ossText.i4 = getelementptr inbounds i8, ptr %st, i64 8
  call void @_ZNSt7__cxx1119basic_ostringstreamIcSt11char_traitsIcESaIcEED1Ev(ptr noundef nonnull align 8 dereferenceable(112) %m_ossText.i4) #13
  resume { ptr, i32 } %.pn.pn
}